; Function Attrs: mustprogress nofree norecurse nosync nounwind willreturn memory(read, inaccessiblemem: none) uwtable
define noundef i32 @_ZNK13ATapDataModel8rowCountERK11QModelIndex(ptr nocapture noundef nonnull readonly align 8 dereferenceable(120) %0, ptr nocapture noundef nonnull readonly align 8 dereferenceable(24) %1) unnamed_addr #9 align 2 {
  %3 = getelementptr inbounds i8, ptr %0, i64 24
  %4 = load ptr, ptr %3, align 8
  %.not = icmp eq ptr %4, null
  br i1 %.not, label %16, label %5

5:                                                ; preds = %2
  %6 = load i32, ptr %1, align 8
  %7 = icmp sgt i32 %6, -1
  %8 = getelementptr inbounds i8, ptr %1, i64 4
  %9 = load i32, ptr %8, align 4
  %10 = icmp sgt i32 %9, -1
  %or.cond.i = select i1 %7, i1 %10, i1 false
  %11 = getelementptr inbounds i8, ptr %1, i64 16
  %12 = load ptr, ptr %11, align 8
  %13 = icmp ne ptr %12, null
  %or.cond = select i1 %or.cond.i, i1 %13, i1 false
  br i1 %or.cond, label %16, label %_ZNK11QModelIndex7isValidEv.exit.thread

_ZNK11QModelIndex7isValidEv.exit.thread:          ; preds = %5
  %14 = getelementptr inbounds i8, ptr %4, i64 8
  %15 = load i32, ptr %14, align 8
  br label %16

16:                                               ; preds = %5, %2, %_ZNK11QModelIndex7isValidEv.exit.thread
  %17 = phi i32 [ %15, %_ZNK11QModelIndex7isValidEv.exit.thread ], [ 0, %2 ], [ 0, %5 ]
  ret i32 %17
}